target datalayout = "e-m:e-p270:32:32-p271:32:32-p272:64:64-i64:64-i128:128-f80:128-n8:16:32:64-S128"
target triple = "x86_64-pc-linux-gnu"

@hf_swils_rscn_evtype = internal global i32 0, align 4
@hf_swils_rscn_addrfmt = internal global i32 0, align 4
@hf_swils_rscn_affectedport = internal global i32 0, align 4
@hf_swils_rscn_detectfn = internal global i32 0, align 4
@hf_swils_rscn_portstate = internal global i32 0, align 4
@hf_swils_rscn_portid = internal global i32 0, align 4
@hf_swils_rscn_pwwn = internal global i32 0, align 4
@hf_swils_rscn_nwwn = internal global i32 0, align 4
@hf_swils_rscn_num_entries = internal global i32 0, align 4
@ett_fcswils_rscn_dev = internal global i32 0, align 4
@.str.417 = private unnamed_addr constant [16 x i8] c"Device Entry %d\00", align 1

; Function Attrs: nounwind uwtable
define internal void @dissect_swils_rscn(ptr noundef %0, ptr noundef %1, ptr noundef %2, i8 noundef zeroext %3) #0 {
  %5 = alloca ptr, align 8
  %6 = alloca ptr, align 8
  %7 = alloca ptr, align 8
  %8 = alloca i8, align 1
  %9 = alloca i32, align 4
  %10 = alloca ptr, align 8
  %11 = alloca i32, align 4
  %12 = alloca i32, align 4
  store ptr %0, ptr %5, align 8
  store ptr %1, ptr %6, align 8
  store ptr %2, ptr %7, align 8
  store i8 %3, ptr %8, align 1
  store i32 0, ptr %9, align 4
  %13 = load ptr, ptr %7, align 8
  %14 = icmp ne ptr %13, null
  br i1 %14, label %15, label %103

15:                                               ; preds = %4
  %16 = load i8, ptr %8, align 1
  %17 = icmp ne i8 %16, 0
  br i1 %17, label %19, label %18

18:                                               ; preds = %15
  br label %103

19:                                               ; preds = %15
  %20 = load ptr, ptr %7, align 8
  %21 = load i32, ptr @hf_swils_rscn_evtype, align 4
  %22 = load ptr, ptr %5, align 8
  %23 = load i32, ptr %9, align 4
  %24 = add i32 %23, 4
  %25 = call ptr @proto_tree_add_item(ptr noundef %20, i32 noundef %21, ptr noundef %22, i32 noundef %24, i32 noundef 1, i32 noundef 0)
  %26 = load ptr, ptr %7, align 8
  %27 = load i32, ptr @hf_swils_rscn_addrfmt, align 4
  %28 = load ptr, ptr %5, align 8
  %29 = load i32, ptr %9, align 4
  %30 = add i32 %29, 4
  %31 = call ptr @proto_tree_add_item(ptr noundef %26, i32 noundef %27, ptr noundef %28, i32 noundef %30, i32 noundef 1, i32 noundef 0)
  %32 = load ptr, ptr %7, align 8
  %33 = load i32, ptr @hf_swils_rscn_affectedport, align 4
  %34 = load ptr, ptr %5, align 8
  %35 = load i32, ptr %9, align 4
  %36 = add i32 %35, 5
  %37 = call ptr @proto_tree_add_item(ptr noundef %32, i32 noundef %33, ptr noundef %34, i32 noundef %36, i32 noundef 3, i32 noundef 0)
  %38 = load ptr, ptr %7, align 8
  %39 = load i32, ptr @hf_swils_rscn_detectfn, align 4
  %40 = load ptr, ptr %5, align 8
  %41 = load i32, ptr %9, align 4
  %42 = add i32 %41, 8
  %43 = call ptr @proto_tree_add_item(ptr noundef %38, i32 noundef %39, ptr noundef %40, i32 noundef %42, i32 noundef 4, i32 noundef 0)
  %44 = load ptr, ptr %5, align 8
  %45 = load i32, ptr %9, align 4
  %46 = add i32 %45, 12
  %47 = call i32 @tvb_get_ntohl(ptr noundef %44, i32 noundef %46)
  store i32 %47, ptr %11, align 4
  %48 = load ptr, ptr %5, align 8
  %49 = load i32, ptr %9, align 4
  %50 = add i32 %49, 16
  %51 = load i32, ptr %11, align 4
  %52 = mul i32 20, %51
  %53 = call i32 @tvb_bytes_exist(ptr noundef %48, i32 noundef %50, i32 noundef %52)
  %54 = icmp ne i32 %53, 0
  br i1 %54, label %56, label %55

55:                                               ; preds = %19
  br label %103

56:                                               ; preds = %19
  %57 = load ptr, ptr %7, align 8
  %58 = load i32, ptr @hf_swils_rscn_num_entries, align 4
  %59 = load ptr, ptr %5, align 8
  %60 = load i32, ptr %9, align 4
  %61 = add i32 %60, 12
  %62 = call ptr @proto_tree_add_item(ptr noundef %57, i32 noundef %58, ptr noundef %59, i32 noundef %61, i32 noundef 4, i32 noundef 0)
  store i32 16, ptr %9, align 4
  store i32 0, ptr %12, align 4
  br label %63

63:                                               ; preds = %99, %56
  %64 = load i32, ptr %12, align 4
  %65 = load i32, ptr %11, align 4
  %66 = icmp slt i32 %64, %65
  br i1 %66, label %67, label %102

67:                                               ; preds = %63
  %68 = load ptr, ptr %7, align 8
  %69 = load ptr, ptr %5, align 8
  %70 = load i32, ptr %9, align 4
  %71 = load i32, ptr @ett_fcswils_rscn_dev, align 4
  %72 = load i32, ptr %12, align 4
  %73 = call ptr (ptr, ptr, i32, i32, i32, ptr, ptr, ...) @proto_tree_add_subtree_format(ptr noundef %68, ptr noundef %69, i32 noundef %70, i32 noundef 20, i32 noundef %71, ptr noundef null, ptr noundef @.str.417, i32 noundef %72)
  store ptr %73, ptr %10, align 8
  %74 = load ptr, ptr %10, align 8
  %75 = load i32, ptr @hf_swils_rscn_portstate, align 4
  %76 = load ptr, ptr %5, align 8
  %77 = load i32, ptr %9, align 4
  %78 = call ptr @proto_tree_add_item(ptr noundef %74, i32 noundef %75, ptr noundef %76, i32 noundef %77, i32 noundef 1, i32 noundef 0)
  %79 = load ptr, ptr %10, align 8
  %80 = load i32, ptr @hf_swils_rscn_portid, align 4
  %81 = load ptr, ptr %5, align 8
  %82 = load i32, ptr %9, align 4
  %83 = add i32 %82, 1
  %84 = call ptr @proto_tree_add_item(ptr noundef %79, i32 noundef %80, ptr noundef %81, i32 noundef %83, i32 noundef 3, i32 noundef 0)
  %85 = load ptr, ptr %10, align 8
  %86 = load i32, ptr @hf_swils_rscn_pwwn, align 4
  %87 = load ptr, ptr %5, align 8
  %88 = load i32, ptr %9, align 4
  %89 = add i32 %88, 4
  %90 = call ptr @proto_tree_add_item(ptr noundef %85, i32 noundef %86, ptr noundef %87, i32 noundef %89, i32 noundef 8, i32 noundef 0)
  %91 = load ptr, ptr %10, align 8
  %92 = load i32, ptr @hf_swils_rscn_nwwn, align 4
  %93 = load ptr, ptr %5, align 8
  %94 = load i32, ptr %9, align 4
  %95 = add i32 %94, 12
  %96 = call ptr @proto_tree_add_item(ptr noundef %91, i32 noundef %92, ptr noundef %93, i32 noundef %95, i32 noundef 8, i32 noundef 0)
  %97 = load i32, ptr %9, align 4
  %98 = add i32 %97, 20
  store i32 %98, ptr %9, align 4
  br label %99

99:                                               ; preds = %67
  %100 = load i32, ptr %12, align 4
  %101 = add i32 %100, 1
  store i32 %101, ptr %12, align 4
  br label %63, !llvm.loop !8

102:                                              ; preds = %63
  br label %103

103:                                              ; preds = %102, %55, %18, %4
  ret void
}