; Function Attrs: nounwind uwtable
define internal void @dissect_swils_rscn(ptr noundef %0, ptr readnone captures(none) %1, ptr noundef %2, i8 noundef zeroext %3) #0 {
  %5 = icmp ne ptr %2, null
  %6 = icmp ne i8 %3, 0
  %or.cond = and i1 %5, %6
  br i1 %or.cond, label %7, label %.loopexit

7:                                                ; preds = %4
  %8 = load i32, ptr @hf_swils_rscn_evtype, align 4
  %9 = tail call ptr @proto_tree_add_item(ptr noundef nonnull %2, i32 noundef %8, ptr noundef %0, i32 noundef 4, i32 noundef 1, i32 noundef 0) #7
  %10 = load i32, ptr @hf_swils_rscn_addrfmt, align 4
  %11 = tail call ptr @proto_tree_add_item(ptr noundef nonnull %2, i32 noundef %10, ptr noundef %0, i32 noundef 4, i32 noundef 1, i32 noundef 0) #7
  %12 = load i32, ptr @hf_swils_rscn_affectedport, align 4
  %13 = tail call ptr @proto_tree_add_item(ptr noundef nonnull %2, i32 noundef %12, ptr noundef %0, i32 noundef 5, i32 noundef 3, i32 noundef 0) #7
  %14 = load i32, ptr @hf_swils_rscn_detectfn, align 4
  %15 = tail call ptr @proto_tree_add_item(ptr noundef nonnull %2, i32 noundef %14, ptr noundef %0, i32 noundef 8, i32 noundef 4, i32 noundef 0) #7
  %16 = tail call i32 @tvb_get_ntohl(ptr noundef %0, i32 noundef 12) #7
  %17 = mul i32 %16, 20
  %18 = tail call i32 @tvb_bytes_exist(ptr noundef %0, i32 noundef 16, i32 noundef %17) #7
  %.not = icmp eq i32 %18, 0
  br i1 %.not, label %.loopexit, label %19

19:                                               ; preds = %7
  %20 = load i32, ptr @hf_swils_rscn_num_entries, align 4
  %21 = tail call ptr @proto_tree_add_item(ptr noundef nonnull %2, i32 noundef %20, ptr noundef %0, i32 noundef 12, i32 noundef 4, i32 noundef 0) #7
  %22 = icmp sgt i32 %16, 0
  br i1 %22, label %.lr.ph, label %.loopexit

.lr.ph:                                           ; preds = %19, %.lr.ph
  %.045 = phi i32 [ %37, %.lr.ph ], [ 0, %19 ]
  %.04244 = phi i32 [ %36, %.lr.ph ], [ 16, %19 ]
  %23 = load i32, ptr @ett_fcswils_rscn_dev, align 4
  %24 = tail call ptr (ptr, ptr, i32, i32, i32, ptr, ptr, ...) @proto_tree_add_subtree_format(ptr noundef nonnull %2, ptr noundef %0, i32 noundef %.04244, i32 noundef 20, i32 noundef %23, ptr noundef null, ptr noundef nonnull @.str.417, i32 noundef %.045) #7
  %25 = load i32, ptr @hf_swils_rscn_portstate, align 4
  %26 = tail call ptr @proto_tree_add_item(ptr noundef %24, i32 noundef %25, ptr noundef %0, i32 noundef %.04244, i32 noundef 1, i32 noundef 0) #7
  %27 = load i32, ptr @hf_swils_rscn_portid, align 4
  %28 = or disjoint i32 %.04244, 1
  %29 = tail call ptr @proto_tree_add_item(ptr noundef %24, i32 noundef %27, ptr noundef %0, i32 noundef %28, i32 noundef 3, i32 noundef 0) #7
  %30 = load i32, ptr @hf_swils_rscn_pwwn, align 4
  %31 = add i32 %.04244, 4
  %32 = tail call ptr @proto_tree_add_item(ptr noundef %24, i32 noundef %30, ptr noundef %0, i32 noundef %31, i32 noundef 8, i32 noundef 0) #7
  %33 = load i32, ptr @hf_swils_rscn_nwwn, align 4
  %34 = add i32 %.04244, 12
  %35 = tail call ptr @proto_tree_add_item(ptr noundef %24, i32 noundef %33, ptr noundef %0, i32 noundef %34, i32 noundef 8, i32 noundef 0) #7
  %36 = add i32 %.04244, 20
  %37 = add nuw nsw i32 %.045, 1
  %exitcond.not = icmp eq i32 %37, %16
  br i1 %exitcond.not, label %.loopexit, label %.lr.ph, !llvm.loop !10

.loopexit:                                        ; preds = %.lr.ph, %19, %7, %4
  ret void
}